ARM GAS  C:\Users\ADMINI~1\AppData\Local\Temp\cc3XTJ2G.s 			page 1


   1              		.cpu cortex-m3
   2              		.arch armv7-m
   3              		.fpu softvfp
   4              		.eabi_attribute 20, 1
   5              		.eabi_attribute 21, 1
   6              		.eabi_attribute 23, 3
   7              		.eabi_attribute 24, 1
   8              		.eabi_attribute 25, 1
   9              		.eabi_attribute 26, 1
  10              		.eabi_attribute 30, 1
  11              		.eabi_attribute 34, 1
  12              		.eabi_attribute 18, 4
  13              		.file	"I2C.c"
  14              		.text
  15              	.Ltext0:
  16              		.cfi_sections	.debug_frame
  17              		.file 1 "Src/I2C.c"
  18              		.section	.text.SCL,"ax",%progbits
  19              		.align	1
  20              		.global	SCL
  21              		.syntax unified
  22              		.thumb
  23              		.thumb_func
  25              	SCL:
  26              	.LVL0:
  27              	.LFB66:
   1:Src/I2C.c     **** #include "I2C.h"
   2:Src/I2C.c     **** 
   3:Src/I2C.c     **** 
   4:Src/I2C.c     **** /**
   5:Src/I2C.c     ****  * @brief       I2C初始化函数
   6:Src/I2C.c     ****  * @param       无
   7:Src/I2C.c     ****  * @retval      无
   8:Src/I2C.c     ****  */
   9:Src/I2C.c     **** void I2C_Init(void)
  10:Src/I2C.c     **** {
  11:Src/I2C.c     ****     GPIO_InitTypeDef GPIO_InitStruct;
  12:Src/I2C.c     ****     __HAL_RCC_GPIOB_CLK_ENABLE();//开启时钟
  13:Src/I2C.c     **** 
  14:Src/I2C.c     ****     GPIO_InitStruct.Pin = I2C_SCL;
  15:Src/I2C.c     ****     GPIO_InitStruct.Pull = GPIO_PULLUP;
  16:Src/I2C.c     ****     GPIO_InitStruct.Mode = GPIO_MODE_OUTPUT_PP;
  17:Src/I2C.c     ****     GPIO_InitStruct.Speed = GPIO_SPEED_FREQ_HIGH;
  18:Src/I2C.c     ****     HAL_GPIO_Init(GPIOB,&GPIO_InitStruct);
  19:Src/I2C.c     ****     GPIO_InitStruct.Pin = I2C_SDA;
  20:Src/I2C.c     ****     GPIO_InitStruct.Mode = GPIO_MODE_OUTPUT_OD;
  21:Src/I2C.c     ****     HAL_GPIO_Init(GPIOB,&GPIO_InitStruct);
  22:Src/I2C.c     ****     I2C_end();
  23:Src/I2C.c     **** }
  24:Src/I2C.c     **** 
  25:Src/I2C.c     **** //state: 0或1
  26:Src/I2C.c     **** void SCL(uint8_t state)
  27:Src/I2C.c     **** {
  28              		.loc 1 27 1 view -0
  29              		.cfi_startproc
  30              		@ args = 0, pretend = 0, frame = 0
  31              		@ frame_needed = 0, uses_anonymous_args = 0
ARM GAS  C:\Users\ADMINI~1\AppData\Local\Temp\cc3XTJ2G.s 			page 2


  32              		.loc 1 27 1 is_stmt 0 view .LVU1
  33 0000 08B5     		push	{r3, lr}
  34              	.LCFI0:
  35              		.cfi_def_cfa_offset 8
  36              		.cfi_offset 3, -8
  37              		.cfi_offset 14, -4
  28:Src/I2C.c     ****     if(state)
  38              		.loc 1 28 5 is_stmt 1 view .LVU2
  39              		.loc 1 28 7 is_stmt 0 view .LVU3
  40 0002 28B1     		cbz	r0, .L2
  29:Src/I2C.c     ****     {
  30:Src/I2C.c     ****         HAL_GPIO_WritePin(GPIOB,I2C_SCL,GPIO_PIN_SET);//SCL置1
  41              		.loc 1 30 9 is_stmt 1 view .LVU4
  42 0004 0122     		movs	r2, #1
  43 0006 4021     		movs	r1, #64
  44 0008 0448     		ldr	r0, .L5
  45              	.LVL1:
  46              		.loc 1 30 9 is_stmt 0 view .LVU5
  47 000a FFF7FEFF 		bl	HAL_GPIO_WritePin
  48              	.LVL2:
  49              	.L1:
  31:Src/I2C.c     ****     }
  32:Src/I2C.c     ****     else
  33:Src/I2C.c     ****     {
  34:Src/I2C.c     ****         HAL_GPIO_WritePin(GPIOB,I2C_SCL,GPIO_PIN_RESET);//SCL置0
  35:Src/I2C.c     ****     }
  36:Src/I2C.c     **** }
  50              		.loc 1 36 1 view .LVU6
  51 000e 08BD     		pop	{r3, pc}
  52              	.LVL3:
  53              	.L2:
  34:Src/I2C.c     ****     }
  54              		.loc 1 34 9 is_stmt 1 view .LVU7
  55 0010 0022     		movs	r2, #0
  56 0012 4021     		movs	r1, #64
  57 0014 0148     		ldr	r0, .L5
  58              	.LVL4:
  34:Src/I2C.c     ****     }
  59              		.loc 1 34 9 is_stmt 0 view .LVU8
  60 0016 FFF7FEFF 		bl	HAL_GPIO_WritePin
  61              	.LVL5:
  62              		.loc 1 36 1 view .LVU9
  63 001a F8E7     		b	.L1
  64              	.L6:
  65              		.align	2
  66              	.L5:
  67 001c 000C0140 		.word	1073810432
  68              		.cfi_endproc
  69              	.LFE66:
  71              		.section	.text.SDA,"ax",%progbits
  72              		.align	1
  73              		.global	SDA
  74              		.syntax unified
  75              		.thumb
  76              		.thumb_func
  78              	SDA:
  79              	.LVL6:
ARM GAS  C:\Users\ADMINI~1\AppData\Local\Temp\cc3XTJ2G.s 			page 3


  80              	.LFB67:
  37:Src/I2C.c     **** 
  38:Src/I2C.c     **** //state: 0或1
  39:Src/I2C.c     **** void SDA(uint8_t state)
  40:Src/I2C.c     **** {
  81              		.loc 1 40 1 is_stmt 1 view -0
  82              		.cfi_startproc
  83              		@ args = 0, pretend = 0, frame = 0
  84              		@ frame_needed = 0, uses_anonymous_args = 0
  85              		.loc 1 40 1 is_stmt 0 view .LVU11
  86 0000 08B5     		push	{r3, lr}
  87              	.LCFI1:
  88              		.cfi_def_cfa_offset 8
  89              		.cfi_offset 3, -8
  90              		.cfi_offset 14, -4
  41:Src/I2C.c     ****     if(state)
  91              		.loc 1 41 5 is_stmt 1 view .LVU12
  92              		.loc 1 41 7 is_stmt 0 view .LVU13
  93 0002 28B1     		cbz	r0, .L8
  42:Src/I2C.c     ****     {
  43:Src/I2C.c     ****         HAL_GPIO_WritePin(GPIOB,I2C_SDA,GPIO_PIN_SET);//SCL置1
  94              		.loc 1 43 9 is_stmt 1 view .LVU14
  95 0004 0122     		movs	r2, #1
  96 0006 8021     		movs	r1, #128
  97 0008 0448     		ldr	r0, .L11
  98              	.LVL7:
  99              		.loc 1 43 9 is_stmt 0 view .LVU15
 100 000a FFF7FEFF 		bl	HAL_GPIO_WritePin
 101              	.LVL8:
 102              	.L7:
  44:Src/I2C.c     ****     }
  45:Src/I2C.c     ****     else
  46:Src/I2C.c     ****     {
  47:Src/I2C.c     ****         HAL_GPIO_WritePin(GPIOB,I2C_SDA,GPIO_PIN_RESET);//SCL置0
  48:Src/I2C.c     ****     }
  49:Src/I2C.c     **** }
 103              		.loc 1 49 1 view .LVU16
 104 000e 08BD     		pop	{r3, pc}
 105              	.LVL9:
 106              	.L8:
  47:Src/I2C.c     ****     }
 107              		.loc 1 47 9 is_stmt 1 view .LVU17
 108 0010 0022     		movs	r2, #0
 109 0012 8021     		movs	r1, #128
 110 0014 0148     		ldr	r0, .L11
 111              	.LVL10:
  47:Src/I2C.c     ****     }
 112              		.loc 1 47 9 is_stmt 0 view .LVU18
 113 0016 FFF7FEFF 		bl	HAL_GPIO_WritePin
 114              	.LVL11:
 115              		.loc 1 49 1 view .LVU19
 116 001a F8E7     		b	.L7
 117              	.L12:
 118              		.align	2
 119              	.L11:
 120 001c 000C0140 		.word	1073810432
 121              		.cfi_endproc
ARM GAS  C:\Users\ADMINI~1\AppData\Local\Temp\cc3XTJ2G.s 			page 4


 122              	.LFE67:
 124              		.section	.text.I2C_delay,"ax",%progbits
 125              		.align	1
 126              		.global	I2C_delay
 127              		.syntax unified
 128              		.thumb
 129              		.thumb_func
 131              	I2C_delay:
 132              	.LFB68:
  50:Src/I2C.c     **** 
  51:Src/I2C.c     **** void I2C_delay(void)
  52:Src/I2C.c     **** {
 133              		.loc 1 52 1 is_stmt 1 view -0
 134              		.cfi_startproc
 135              		@ args = 0, pretend = 0, frame = 0
 136              		@ frame_needed = 0, uses_anonymous_args = 0
 137 0000 08B5     		push	{r3, lr}
 138              	.LCFI2:
 139              		.cfi_def_cfa_offset 8
 140              		.cfi_offset 3, -8
 141              		.cfi_offset 14, -4
  53:Src/I2C.c     ****     delay_us(2);
 142              		.loc 1 53 5 view .LVU21
 143 0002 0220     		movs	r0, #2
 144 0004 FFF7FEFF 		bl	delay_us
 145              	.LVL12:
  54:Src/I2C.c     **** }
 146              		.loc 1 54 1 is_stmt 0 view .LVU22
 147 0008 08BD     		pop	{r3, pc}
 148              		.cfi_endproc
 149              	.LFE68:
 151              		.section	.text.I2C_start,"ax",%progbits
 152              		.align	1
 153              		.global	I2C_start
 154              		.syntax unified
 155              		.thumb
 156              		.thumb_func
 158              	I2C_start:
 159              	.LFB69:
  55:Src/I2C.c     **** 
  56:Src/I2C.c     **** /**
  57:Src/I2C.c     ****  * @brief       I2C起始函数
  58:Src/I2C.c     ****  * @param       无
  59:Src/I2C.c     ****  * @retval      无
  60:Src/I2C.c     ****  */
  61:Src/I2C.c     **** void I2C_start(void)
  62:Src/I2C.c     **** {
 160              		.loc 1 62 1 is_stmt 1 view -0
 161              		.cfi_startproc
 162              		@ args = 0, pretend = 0, frame = 0
 163              		@ frame_needed = 0, uses_anonymous_args = 0
 164 0000 08B5     		push	{r3, lr}
 165              	.LCFI3:
 166              		.cfi_def_cfa_offset 8
 167              		.cfi_offset 3, -8
 168              		.cfi_offset 14, -4
  63:Src/I2C.c     ****     SDA(1);
ARM GAS  C:\Users\ADMINI~1\AppData\Local\Temp\cc3XTJ2G.s 			page 5


 169              		.loc 1 63 5 view .LVU24
 170 0002 0120     		movs	r0, #1
 171 0004 FFF7FEFF 		bl	SDA
 172              	.LVL13:
  64:Src/I2C.c     ****     SCL(1);
 173              		.loc 1 64 5 view .LVU25
 174 0008 0120     		movs	r0, #1
 175 000a FFF7FEFF 		bl	SCL
 176              	.LVL14:
  65:Src/I2C.c     ****     I2C_delay();
 177              		.loc 1 65 5 view .LVU26
 178 000e FFF7FEFF 		bl	I2C_delay
 179              	.LVL15:
  66:Src/I2C.c     ****     SDA(0);
 180              		.loc 1 66 5 view .LVU27
 181 0012 0020     		movs	r0, #0
 182 0014 FFF7FEFF 		bl	SDA
 183              	.LVL16:
  67:Src/I2C.c     ****     I2C_delay();
 184              		.loc 1 67 5 view .LVU28
 185 0018 FFF7FEFF 		bl	I2C_delay
 186              	.LVL17:
  68:Src/I2C.c     ****     SCL(0);
 187              		.loc 1 68 5 view .LVU29
 188 001c 0020     		movs	r0, #0
 189 001e FFF7FEFF 		bl	SCL
 190              	.LVL18:
  69:Src/I2C.c     ****     I2C_delay();
 191              		.loc 1 69 5 view .LVU30
 192 0022 FFF7FEFF 		bl	I2C_delay
 193              	.LVL19:
  70:Src/I2C.c     **** }
 194              		.loc 1 70 1 is_stmt 0 view .LVU31
 195 0026 08BD     		pop	{r3, pc}
 196              		.cfi_endproc
 197              	.LFE69:
 199              		.section	.text.I2C_end,"ax",%progbits
 200              		.align	1
 201              		.global	I2C_end
 202              		.syntax unified
 203              		.thumb
 204              		.thumb_func
 206              	I2C_end:
 207              	.LFB70:
  71:Src/I2C.c     **** 
  72:Src/I2C.c     **** /**
  73:Src/I2C.c     ****  * @brief       I2C终止函数
  74:Src/I2C.c     ****  * @param       无
  75:Src/I2C.c     ****  * @retval      无
  76:Src/I2C.c     ****  */
  77:Src/I2C.c     **** void I2C_end(void)
  78:Src/I2C.c     **** {
 208              		.loc 1 78 1 is_stmt 1 view -0
 209              		.cfi_startproc
 210              		@ args = 0, pretend = 0, frame = 0
 211              		@ frame_needed = 0, uses_anonymous_args = 0
 212 0000 08B5     		push	{r3, lr}
ARM GAS  C:\Users\ADMINI~1\AppData\Local\Temp\cc3XTJ2G.s 			page 6


 213              	.LCFI4:
 214              		.cfi_def_cfa_offset 8
 215              		.cfi_offset 3, -8
 216              		.cfi_offset 14, -4
  79:Src/I2C.c     ****     SDA(0);
 217              		.loc 1 79 5 view .LVU33
 218 0002 0020     		movs	r0, #0
 219 0004 FFF7FEFF 		bl	SDA
 220              	.LVL20:
  80:Src/I2C.c     ****     I2C_delay();
 221              		.loc 1 80 5 view .LVU34
 222 0008 FFF7FEFF 		bl	I2C_delay
 223              	.LVL21:
  81:Src/I2C.c     ****     SCL(1);
 224              		.loc 1 81 5 view .LVU35
 225 000c 0120     		movs	r0, #1
 226 000e FFF7FEFF 		bl	SCL
 227              	.LVL22:
  82:Src/I2C.c     ****     I2C_delay();
 228              		.loc 1 82 5 view .LVU36
 229 0012 FFF7FEFF 		bl	I2C_delay
 230              	.LVL23:
  83:Src/I2C.c     ****     SDA(1);
 231              		.loc 1 83 5 view .LVU37
 232 0016 0120     		movs	r0, #1
 233 0018 FFF7FEFF 		bl	SDA
 234              	.LVL24:
  84:Src/I2C.c     ****     I2C_delay();
 235              		.loc 1 84 5 view .LVU38
 236 001c FFF7FEFF 		bl	I2C_delay
 237              	.LVL25:
  85:Src/I2C.c     **** }
 238              		.loc 1 85 1 is_stmt 0 view .LVU39
 239 0020 08BD     		pop	{r3, pc}
 240              		.cfi_endproc
 241              	.LFE70:
 243              		.section	.text.I2C_Init,"ax",%progbits
 244              		.align	1
 245              		.global	I2C_Init
 246              		.syntax unified
 247              		.thumb
 248              		.thumb_func
 250              	I2C_Init:
 251              	.LFB65:
  10:Src/I2C.c     ****     GPIO_InitTypeDef GPIO_InitStruct;
 252              		.loc 1 10 1 is_stmt 1 view -0
 253              		.cfi_startproc
 254              		@ args = 0, pretend = 0, frame = 24
 255              		@ frame_needed = 0, uses_anonymous_args = 0
 256 0000 10B5     		push	{r4, lr}
 257              	.LCFI5:
 258              		.cfi_def_cfa_offset 8
 259              		.cfi_offset 4, -8
 260              		.cfi_offset 14, -4
 261 0002 86B0     		sub	sp, sp, #24
 262              	.LCFI6:
 263              		.cfi_def_cfa_offset 32
ARM GAS  C:\Users\ADMINI~1\AppData\Local\Temp\cc3XTJ2G.s 			page 7


  11:Src/I2C.c     ****     __HAL_RCC_GPIOB_CLK_ENABLE();//开启时钟
 264              		.loc 1 11 5 view .LVU41
  12:Src/I2C.c     **** 
 265              		.loc 1 12 5 view .LVU42
 266              	.LBB2:
  12:Src/I2C.c     **** 
 267              		.loc 1 12 5 view .LVU43
  12:Src/I2C.c     **** 
 268              		.loc 1 12 5 view .LVU44
 269 0004 104B     		ldr	r3, .L21
 270 0006 9A69     		ldr	r2, [r3, #24]
 271 0008 42F00802 		orr	r2, r2, #8
 272 000c 9A61     		str	r2, [r3, #24]
  12:Src/I2C.c     **** 
 273              		.loc 1 12 5 view .LVU45
 274 000e 9B69     		ldr	r3, [r3, #24]
 275 0010 03F00803 		and	r3, r3, #8
 276 0014 0193     		str	r3, [sp, #4]
  12:Src/I2C.c     **** 
 277              		.loc 1 12 5 view .LVU46
 278 0016 019B     		ldr	r3, [sp, #4]
 279              	.LBE2:
  12:Src/I2C.c     **** 
 280              		.loc 1 12 5 view .LVU47
  14:Src/I2C.c     ****     GPIO_InitStruct.Pull = GPIO_PULLUP;
 281              		.loc 1 14 5 view .LVU48
  14:Src/I2C.c     ****     GPIO_InitStruct.Pull = GPIO_PULLUP;
 282              		.loc 1 14 25 is_stmt 0 view .LVU49
 283 0018 4023     		movs	r3, #64
 284 001a 0293     		str	r3, [sp, #8]
  15:Src/I2C.c     ****     GPIO_InitStruct.Mode = GPIO_MODE_OUTPUT_PP;
 285              		.loc 1 15 5 is_stmt 1 view .LVU50
  15:Src/I2C.c     ****     GPIO_InitStruct.Mode = GPIO_MODE_OUTPUT_PP;
 286              		.loc 1 15 26 is_stmt 0 view .LVU51
 287 001c 0123     		movs	r3, #1
 288 001e 0493     		str	r3, [sp, #16]
  16:Src/I2C.c     ****     GPIO_InitStruct.Speed = GPIO_SPEED_FREQ_HIGH;
 289              		.loc 1 16 5 is_stmt 1 view .LVU52
  16:Src/I2C.c     ****     GPIO_InitStruct.Speed = GPIO_SPEED_FREQ_HIGH;
 290              		.loc 1 16 26 is_stmt 0 view .LVU53
 291 0020 0393     		str	r3, [sp, #12]
  17:Src/I2C.c     ****     HAL_GPIO_Init(GPIOB,&GPIO_InitStruct);
 292              		.loc 1 17 5 is_stmt 1 view .LVU54
  17:Src/I2C.c     ****     HAL_GPIO_Init(GPIOB,&GPIO_InitStruct);
 293              		.loc 1 17 27 is_stmt 0 view .LVU55
 294 0022 0323     		movs	r3, #3
 295 0024 0593     		str	r3, [sp, #20]
  18:Src/I2C.c     ****     GPIO_InitStruct.Pin = I2C_SDA;
 296              		.loc 1 18 5 is_stmt 1 view .LVU56
 297 0026 094C     		ldr	r4, .L21+4
 298 0028 02A9     		add	r1, sp, #8
 299 002a 2046     		mov	r0, r4
 300 002c FFF7FEFF 		bl	HAL_GPIO_Init
 301              	.LVL26:
  19:Src/I2C.c     ****     GPIO_InitStruct.Mode = GPIO_MODE_OUTPUT_OD;
 302              		.loc 1 19 5 view .LVU57
  19:Src/I2C.c     ****     GPIO_InitStruct.Mode = GPIO_MODE_OUTPUT_OD;
ARM GAS  C:\Users\ADMINI~1\AppData\Local\Temp\cc3XTJ2G.s 			page 8


 303              		.loc 1 19 25 is_stmt 0 view .LVU58
 304 0030 8023     		movs	r3, #128
 305 0032 0293     		str	r3, [sp, #8]
  20:Src/I2C.c     ****     HAL_GPIO_Init(GPIOB,&GPIO_InitStruct);
 306              		.loc 1 20 5 is_stmt 1 view .LVU59
  20:Src/I2C.c     ****     HAL_GPIO_Init(GPIOB,&GPIO_InitStruct);
 307              		.loc 1 20 26 is_stmt 0 view .LVU60
 308 0034 1123     		movs	r3, #17
 309 0036 0393     		str	r3, [sp, #12]
  21:Src/I2C.c     ****     I2C_end();
 310              		.loc 1 21 5 is_stmt 1 view .LVU61
 311 0038 02A9     		add	r1, sp, #8
 312 003a 2046     		mov	r0, r4
 313 003c FFF7FEFF 		bl	HAL_GPIO_Init
 314              	.LVL27:
  22:Src/I2C.c     **** }
 315              		.loc 1 22 5 view .LVU62
 316 0040 FFF7FEFF 		bl	I2C_end
 317              	.LVL28:
  23:Src/I2C.c     **** 
 318              		.loc 1 23 1 is_stmt 0 view .LVU63
 319 0044 06B0     		add	sp, sp, #24
 320              	.LCFI7:
 321              		.cfi_def_cfa_offset 8
 322              		@ sp needed
 323 0046 10BD     		pop	{r4, pc}
 324              	.L22:
 325              		.align	2
 326              	.L21:
 327 0048 00100240 		.word	1073876992
 328 004c 000C0140 		.word	1073810432
 329              		.cfi_endproc
 330              	.LFE65:
 332              		.section	.text.I2C_sendByte,"ax",%progbits
 333              		.align	1
 334              		.global	I2C_sendByte
 335              		.syntax unified
 336              		.thumb
 337              		.thumb_func
 339              	I2C_sendByte:
 340              	.LVL29:
 341              	.LFB71:
  86:Src/I2C.c     **** 
  87:Src/I2C.c     **** /**
  88:Src/I2C.c     ****  * @brief       I2C发送一字节函数
  89:Src/I2C.c     ****  * @param       data:要发送的一字节数据
  90:Src/I2C.c     ****  * @retval      无
  91:Src/I2C.c     ****  */
  92:Src/I2C.c     **** void I2C_sendByte(uint8_t data)
  93:Src/I2C.c     **** {
 342              		.loc 1 93 1 is_stmt 1 view -0
 343              		.cfi_startproc
 344              		@ args = 0, pretend = 0, frame = 0
 345              		@ frame_needed = 0, uses_anonymous_args = 0
 346              		.loc 1 93 1 is_stmt 0 view .LVU65
 347 0000 38B5     		push	{r3, r4, r5, lr}
 348              	.LCFI8:
ARM GAS  C:\Users\ADMINI~1\AppData\Local\Temp\cc3XTJ2G.s 			page 9


 349              		.cfi_def_cfa_offset 16
 350              		.cfi_offset 3, -16
 351              		.cfi_offset 4, -12
 352              		.cfi_offset 5, -8
 353              		.cfi_offset 14, -4
 354 0002 0546     		mov	r5, r0
  94:Src/I2C.c     ****     for(int count = 0;count < 8;count++)
 355              		.loc 1 94 5 is_stmt 1 view .LVU66
 356              	.LBB3:
 357              		.loc 1 94 9 view .LVU67
 358              	.LVL30:
 359              		.loc 1 94 13 is_stmt 0 view .LVU68
 360 0004 0024     		movs	r4, #0
 361              		.loc 1 94 5 view .LVU69
 362 0006 12E0     		b	.L24
 363              	.LVL31:
 364              	.L25:
  95:Src/I2C.c     ****     {
  96:Src/I2C.c     ****         SDA((data >> (7 - count)) & 0x01);
 365              		.loc 1 96 9 is_stmt 1 view .LVU70
 366              		.loc 1 96 25 is_stmt 0 view .LVU71
 367 0008 C4F10700 		rsb	r0, r4, #7
 368              		.loc 1 96 19 view .LVU72
 369 000c 45FA00F0 		asr	r0, r5, r0
 370              		.loc 1 96 9 view .LVU73
 371 0010 00F00100 		and	r0, r0, #1
 372 0014 FFF7FEFF 		bl	SDA
 373              	.LVL32:
  97:Src/I2C.c     ****         I2C_delay();
 374              		.loc 1 97 9 is_stmt 1 view .LVU74
 375 0018 FFF7FEFF 		bl	I2C_delay
 376              	.LVL33:
  98:Src/I2C.c     ****         SCL(1);
 377              		.loc 1 98 9 view .LVU75
 378 001c 0120     		movs	r0, #1
 379 001e FFF7FEFF 		bl	SCL
 380              	.LVL34:
  99:Src/I2C.c     ****         I2C_delay();
 381              		.loc 1 99 9 view .LVU76
 382 0022 FFF7FEFF 		bl	I2C_delay
 383              	.LVL35:
 100:Src/I2C.c     ****         SCL(0);
 384              		.loc 1 100 9 view .LVU77
 385 0026 0020     		movs	r0, #0
 386 0028 FFF7FEFF 		bl	SCL
 387              	.LVL36:
  94:Src/I2C.c     ****     {
 388              		.loc 1 94 38 discriminator 3 view .LVU78
 389 002c 0134     		adds	r4, r4, #1
 390              	.LVL37:
 391              	.L24:
  94:Src/I2C.c     ****     {
 392              		.loc 1 94 29 discriminator 1 view .LVU79
 393 002e 072C     		cmp	r4, #7
 394 0030 EADD     		ble	.L25
 395              	.LBE3:
 101:Src/I2C.c     ****     }
ARM GAS  C:\Users\ADMINI~1\AppData\Local\Temp\cc3XTJ2G.s 			page 10


 102:Src/I2C.c     ****     SDA(1);//主机发送完释放SDA
 396              		.loc 1 102 5 view .LVU80
 397 0032 0120     		movs	r0, #1
 398 0034 FFF7FEFF 		bl	SDA
 399              	.LVL38:
 103:Src/I2C.c     **** }
 400              		.loc 1 103 1 is_stmt 0 view .LVU81
 401 0038 38BD     		pop	{r3, r4, r5, pc}
 402              		.loc 1 103 1 view .LVU82
 403              		.cfi_endproc
 404              	.LFE71:
 406              		.section	.text.I2C_receiveACK,"ax",%progbits
 407              		.align	1
 408              		.global	I2C_receiveACK
 409              		.syntax unified
 410              		.thumb
 411              		.thumb_func
 413              	I2C_receiveACK:
 414              	.LFB73:
 104:Src/I2C.c     **** 
 105:Src/I2C.c     **** /**
 106:Src/I2C.c     ****  * @brief       I2C接收一字节函数
 107:Src/I2C.c     ****  * @param       无
 108:Src/I2C.c     ****  * @retval      data:接收到的一字节数据
 109:Src/I2C.c     ****  */
 110:Src/I2C.c     **** uint8_t I2C_receiveByte(uint8_t ack)
 111:Src/I2C.c     **** {
 112:Src/I2C.c     ****     uint8_t data;
 113:Src/I2C.c     ****     for(int count = 0;count < 8;count++)
 114:Src/I2C.c     ****     {
 115:Src/I2C.c     ****         SCL(1);//SCL置1
 116:Src/I2C.c     ****         I2C_delay();
 117:Src/I2C.c     ****         if(HAL_GPIO_ReadPin(GPIOB,I2C_SDA))
 118:Src/I2C.c     ****         {
 119:Src/I2C.c     ****             data |= (0x80 >> count);
 120:Src/I2C.c     ****         }
 121:Src/I2C.c     ****         SCL(0);//SCL置0
 122:Src/I2C.c     ****         I2C_delay();
 123:Src/I2C.c     ****     }
 124:Src/I2C.c     ****     if(ack == 0)
 125:Src/I2C.c     ****     {
 126:Src/I2C.c     ****         I2C_sendACK();
 127:Src/I2C.c     ****     }
 128:Src/I2C.c     ****     else
 129:Src/I2C.c     ****     {
 130:Src/I2C.c     ****         I2C_sendNACK();
 131:Src/I2C.c     ****     }
 132:Src/I2C.c     ****     return data;
 133:Src/I2C.c     **** }
 134:Src/I2C.c     **** 
 135:Src/I2C.c     **** /**
 136:Src/I2C.c     ****  * @brief       I2C接收应答函数
 137:Src/I2C.c     ****  * @param       无
 138:Src/I2C.c     ****  * @retval      ackbit:0表示应答；1表示非应答
 139:Src/I2C.c     ****  */
 140:Src/I2C.c     **** uint8_t I2C_receiveACK(void)
 141:Src/I2C.c     **** {
ARM GAS  C:\Users\ADMINI~1\AppData\Local\Temp\cc3XTJ2G.s 			page 11


 415              		.loc 1 141 1 is_stmt 1 view -0
 416              		.cfi_startproc
 417              		@ args = 0, pretend = 0, frame = 0
 418              		@ frame_needed = 0, uses_anonymous_args = 0
 419 0000 38B5     		push	{r3, r4, r5, lr}
 420              	.LCFI9:
 421              		.cfi_def_cfa_offset 16
 422              		.cfi_offset 3, -16
 423              		.cfi_offset 4, -12
 424              		.cfi_offset 5, -8
 425              		.cfi_offset 14, -4
 142:Src/I2C.c     ****     uint8_t waittime = 0;
 426              		.loc 1 142 5 view .LVU84
 427              	.LVL39:
 143:Src/I2C.c     ****     uint8_t rack = 0;
 428              		.loc 1 143 5 view .LVU85
 144:Src/I2C.c     ****     SDA(1);//主机释放SDA
 429              		.loc 1 144 5 view .LVU86
 430 0002 0120     		movs	r0, #1
 431 0004 FFF7FEFF 		bl	SDA
 432              	.LVL40:
 145:Src/I2C.c     ****     I2C_delay();
 433              		.loc 1 145 5 view .LVU87
 434 0008 FFF7FEFF 		bl	I2C_delay
 435              	.LVL41:
 146:Src/I2C.c     ****     SCL(1);//SCL置0
 436              		.loc 1 146 5 view .LVU88
 437 000c 0120     		movs	r0, #1
 438 000e FFF7FEFF 		bl	SCL
 439              	.LVL42:
 147:Src/I2C.c     ****     I2C_delay();
 440              		.loc 1 147 5 view .LVU89
 441 0012 FFF7FEFF 		bl	I2C_delay
 442              	.LVL43:
 148:Src/I2C.c     **** 
 149:Src/I2C.c     ****     while(HAL_GPIO_ReadPin(GPIOB,I2C_SDA))
 443              		.loc 1 149 5 view .LVU90
 142:Src/I2C.c     ****     uint8_t rack = 0;
 444              		.loc 1 142 13 is_stmt 0 view .LVU91
 445 0016 0024     		movs	r4, #0
 446              	.LVL44:
 447              	.L28:
 448              		.loc 1 149 11 is_stmt 1 view .LVU92
 449 0018 8021     		movs	r1, #128
 450 001a 0948     		ldr	r0, .L32
 451 001c FFF7FEFF 		bl	HAL_GPIO_ReadPin
 452              	.LVL45:
 453              		.loc 1 149 11 is_stmt 0 discriminator 1 view .LVU93
 454 0020 0546     		mov	r5, r0
 455 0022 30B1     		cbz	r0, .L29
 150:Src/I2C.c     ****     {
 151:Src/I2C.c     ****         waittime++;
 456              		.loc 1 151 9 is_stmt 1 view .LVU94
 457              		.loc 1 151 17 is_stmt 0 view .LVU95
 458 0024 0134     		adds	r4, r4, #1
 459              	.LVL46:
 460              		.loc 1 151 17 view .LVU96
ARM GAS  C:\Users\ADMINI~1\AppData\Local\Temp\cc3XTJ2G.s 			page 12


 461 0026 E4B2     		uxtb	r4, r4
 462              	.LVL47:
 152:Src/I2C.c     ****         if(waittime > 250)
 463              		.loc 1 152 9 is_stmt 1 view .LVU97
 464              		.loc 1 152 11 is_stmt 0 view .LVU98
 465 0028 FA2C     		cmp	r4, #250
 466 002a F5D9     		bls	.L28
 153:Src/I2C.c     ****         {
 154:Src/I2C.c     ****             I2C_end();
 467              		.loc 1 154 13 is_stmt 1 view .LVU99
 468 002c FFF7FEFF 		bl	I2C_end
 469              	.LVL48:
 155:Src/I2C.c     ****             rack = 1;
 470              		.loc 1 155 13 view .LVU100
 156:Src/I2C.c     ****             break;
 471              		.loc 1 156 13 view .LVU101
 155:Src/I2C.c     ****             rack = 1;
 472              		.loc 1 155 18 is_stmt 0 view .LVU102
 473 0030 0125     		movs	r5, #1
 474              	.LVL49:
 475              	.L29:
 157:Src/I2C.c     ****         }
 158:Src/I2C.c     ****     }
 159:Src/I2C.c     ****     SCL(0);
 476              		.loc 1 159 5 is_stmt 1 view .LVU103
 477 0032 0020     		movs	r0, #0
 478 0034 FFF7FEFF 		bl	SCL
 479              	.LVL50:
 160:Src/I2C.c     ****     I2C_delay();
 480              		.loc 1 160 5 view .LVU104
 481 0038 FFF7FEFF 		bl	I2C_delay
 482              	.LVL51:
 161:Src/I2C.c     ****     return rack;
 483              		.loc 1 161 5 view .LVU105
 162:Src/I2C.c     **** }
 484              		.loc 1 162 1 is_stmt 0 view .LVU106
 485 003c 2846     		mov	r0, r5
 486 003e 38BD     		pop	{r3, r4, r5, pc}
 487              	.LVL52:
 488              	.L33:
 489              		.loc 1 162 1 view .LVU107
 490              		.align	2
 491              	.L32:
 492 0040 000C0140 		.word	1073810432
 493              		.cfi_endproc
 494              	.LFE73:
 496              		.section	.text.I2C_sendACK,"ax",%progbits
 497              		.align	1
 498              		.global	I2C_sendACK
 499              		.syntax unified
 500              		.thumb
 501              		.thumb_func
 503              	I2C_sendACK:
 504              	.LFB74:
 163:Src/I2C.c     **** 
 164:Src/I2C.c     **** /**
 165:Src/I2C.c     ****  * @brief       I2C发送应答函数
ARM GAS  C:\Users\ADMINI~1\AppData\Local\Temp\cc3XTJ2G.s 			page 13


 166:Src/I2C.c     ****  * @param       无
 167:Src/I2C.c     ****  * @retval      无
 168:Src/I2C.c     ****  */
 169:Src/I2C.c     **** void I2C_sendACK(void)
 170:Src/I2C.c     **** {
 505              		.loc 1 170 1 is_stmt 1 view -0
 506              		.cfi_startproc
 507              		@ args = 0, pretend = 0, frame = 0
 508              		@ frame_needed = 0, uses_anonymous_args = 0
 509 0000 08B5     		push	{r3, lr}
 510              	.LCFI10:
 511              		.cfi_def_cfa_offset 8
 512              		.cfi_offset 3, -8
 513              		.cfi_offset 14, -4
 171:Src/I2C.c     ****     SDA(0);
 514              		.loc 1 171 5 view .LVU109
 515 0002 0020     		movs	r0, #0
 516 0004 FFF7FEFF 		bl	SDA
 517              	.LVL53:
 172:Src/I2C.c     ****     I2C_delay();
 518              		.loc 1 172 5 view .LVU110
 519 0008 FFF7FEFF 		bl	I2C_delay
 520              	.LVL54:
 173:Src/I2C.c     ****     SCL(1);
 521              		.loc 1 173 5 view .LVU111
 522 000c 0120     		movs	r0, #1
 523 000e FFF7FEFF 		bl	SCL
 524              	.LVL55:
 174:Src/I2C.c     ****     I2C_delay();
 525              		.loc 1 174 5 view .LVU112
 526 0012 FFF7FEFF 		bl	I2C_delay
 527              	.LVL56:
 175:Src/I2C.c     ****     SCL(0);
 528              		.loc 1 175 5 view .LVU113
 529 0016 0020     		movs	r0, #0
 530 0018 FFF7FEFF 		bl	SCL
 531              	.LVL57:
 176:Src/I2C.c     ****     I2C_delay();
 532              		.loc 1 176 5 view .LVU114
 533 001c FFF7FEFF 		bl	I2C_delay
 534              	.LVL58:
 177:Src/I2C.c     ****     SDA(1);
 535              		.loc 1 177 5 view .LVU115
 536 0020 0120     		movs	r0, #1
 537 0022 FFF7FEFF 		bl	SDA
 538              	.LVL59:
 178:Src/I2C.c     ****     I2C_delay();
 539              		.loc 1 178 5 view .LVU116
 540 0026 FFF7FEFF 		bl	I2C_delay
 541              	.LVL60:
 179:Src/I2C.c     **** }
 542              		.loc 1 179 1 is_stmt 0 view .LVU117
 543 002a 08BD     		pop	{r3, pc}
 544              		.cfi_endproc
 545              	.LFE74:
 547              		.section	.text.I2C_sendNACK,"ax",%progbits
 548              		.align	1
ARM GAS  C:\Users\ADMINI~1\AppData\Local\Temp\cc3XTJ2G.s 			page 14


 549              		.global	I2C_sendNACK
 550              		.syntax unified
 551              		.thumb
 552              		.thumb_func
 554              	I2C_sendNACK:
 555              	.LFB75:
 180:Src/I2C.c     **** 
 181:Src/I2C.c     **** /**
 182:Src/I2C.c     ****  * @brief       I2C发送未应答函数
 183:Src/I2C.c     ****  * @param       无
 184:Src/I2C.c     ****  * @retval      无
 185:Src/I2C.c     ****  */
 186:Src/I2C.c     **** void I2C_sendNACK(void)
 187:Src/I2C.c     **** {
 556              		.loc 1 187 1 is_stmt 1 view -0
 557              		.cfi_startproc
 558              		@ args = 0, pretend = 0, frame = 0
 559              		@ frame_needed = 0, uses_anonymous_args = 0
 560 0000 08B5     		push	{r3, lr}
 561              	.LCFI11:
 562              		.cfi_def_cfa_offset 8
 563              		.cfi_offset 3, -8
 564              		.cfi_offset 14, -4
 188:Src/I2C.c     ****     SDA(1);
 565              		.loc 1 188 5 view .LVU119
 566 0002 0120     		movs	r0, #1
 567 0004 FFF7FEFF 		bl	SDA
 568              	.LVL61:
 189:Src/I2C.c     ****     I2C_delay();
 569              		.loc 1 189 5 view .LVU120
 570 0008 FFF7FEFF 		bl	I2C_delay
 571              	.LVL62:
 190:Src/I2C.c     ****     SCL(1);
 572              		.loc 1 190 5 view .LVU121
 573 000c 0120     		movs	r0, #1
 574 000e FFF7FEFF 		bl	SCL
 575              	.LVL63:
 191:Src/I2C.c     ****     I2C_delay();
 576              		.loc 1 191 5 view .LVU122
 577 0012 FFF7FEFF 		bl	I2C_delay
 578              	.LVL64:
 192:Src/I2C.c     ****     SCL(0);
 579              		.loc 1 192 5 view .LVU123
 580 0016 0020     		movs	r0, #0
 581 0018 FFF7FEFF 		bl	SCL
 582              	.LVL65:
 193:Src/I2C.c     ****     I2C_delay();
 583              		.loc 1 193 5 view .LVU124
 584 001c FFF7FEFF 		bl	I2C_delay
 585              	.LVL66:
 194:Src/I2C.c     **** }
 586              		.loc 1 194 1 is_stmt 0 view .LVU125
 587 0020 08BD     		pop	{r3, pc}
 588              		.cfi_endproc
 589              	.LFE75:
 591              		.section	.text.I2C_receiveByte,"ax",%progbits
 592              		.align	1
ARM GAS  C:\Users\ADMINI~1\AppData\Local\Temp\cc3XTJ2G.s 			page 15


 593              		.global	I2C_receiveByte
 594              		.syntax unified
 595              		.thumb
 596              		.thumb_func
 598              	I2C_receiveByte:
 599              	.LVL67:
 600              	.LFB72:
 111:Src/I2C.c     ****     uint8_t data;
 601              		.loc 1 111 1 is_stmt 1 view -0
 602              		.cfi_startproc
 603              		@ args = 0, pretend = 0, frame = 0
 604              		@ frame_needed = 0, uses_anonymous_args = 0
 111:Src/I2C.c     ****     uint8_t data;
 605              		.loc 1 111 1 is_stmt 0 view .LVU127
 606 0000 70B5     		push	{r4, r5, r6, lr}
 607              	.LCFI12:
 608              		.cfi_def_cfa_offset 16
 609              		.cfi_offset 4, -16
 610              		.cfi_offset 5, -12
 611              		.cfi_offset 6, -8
 612              		.cfi_offset 14, -4
 613 0002 0646     		mov	r6, r0
 614 0004 0025     		movs	r5, #0
 112:Src/I2C.c     ****     for(int count = 0;count < 8;count++)
 615              		.loc 1 112 5 is_stmt 1 view .LVU128
 113:Src/I2C.c     ****     {
 616              		.loc 1 113 5 view .LVU129
 617              	.LBB4:
 113:Src/I2C.c     ****     {
 618              		.loc 1 113 9 view .LVU130
 619              	.LVL68:
 113:Src/I2C.c     ****     {
 620              		.loc 1 113 13 is_stmt 0 view .LVU131
 621 0006 2C46     		mov	r4, r5
 113:Src/I2C.c     ****     {
 622              		.loc 1 113 5 view .LVU132
 623 0008 05E0     		b	.L39
 624              	.LVL69:
 625              	.L40:
 121:Src/I2C.c     ****         I2C_delay();
 626              		.loc 1 121 9 is_stmt 1 view .LVU133
 627 000a 0020     		movs	r0, #0
 628 000c FFF7FEFF 		bl	SCL
 629              	.LVL70:
 122:Src/I2C.c     ****     }
 630              		.loc 1 122 9 view .LVU134
 631 0010 FFF7FEFF 		bl	I2C_delay
 632              	.LVL71:
 113:Src/I2C.c     ****     {
 633              		.loc 1 113 38 discriminator 2 view .LVU135
 634 0014 0134     		adds	r4, r4, #1
 635              	.LVL72:
 636              	.L39:
 113:Src/I2C.c     ****     {
 637              		.loc 1 113 29 discriminator 1 view .LVU136
 638 0016 072C     		cmp	r4, #7
 639 0018 0FDC     		bgt	.L45
ARM GAS  C:\Users\ADMINI~1\AppData\Local\Temp\cc3XTJ2G.s 			page 16


 115:Src/I2C.c     ****         I2C_delay();
 640              		.loc 1 115 9 view .LVU137
 641 001a 0120     		movs	r0, #1
 642 001c FFF7FEFF 		bl	SCL
 643              	.LVL73:
 116:Src/I2C.c     ****         if(HAL_GPIO_ReadPin(GPIOB,I2C_SDA))
 644              		.loc 1 116 9 view .LVU138
 645 0020 FFF7FEFF 		bl	I2C_delay
 646              	.LVL74:
 117:Src/I2C.c     ****         {
 647              		.loc 1 117 9 view .LVU139
 117:Src/I2C.c     ****         {
 648              		.loc 1 117 12 is_stmt 0 view .LVU140
 649 0024 8021     		movs	r1, #128
 650 0026 0948     		ldr	r0, .L46
 651 0028 FFF7FEFF 		bl	HAL_GPIO_ReadPin
 652              	.LVL75:
 117:Src/I2C.c     ****         {
 653              		.loc 1 117 11 discriminator 1 view .LVU141
 654 002c 0028     		cmp	r0, #0
 655 002e ECD0     		beq	.L40
 119:Src/I2C.c     ****         }
 656              		.loc 1 119 13 is_stmt 1 view .LVU142
 119:Src/I2C.c     ****         }
 657              		.loc 1 119 27 is_stmt 0 view .LVU143
 658 0030 8023     		movs	r3, #128
 659 0032 2341     		asrs	r3, r3, r4
 119:Src/I2C.c     ****         }
 660              		.loc 1 119 18 view .LVU144
 661 0034 1D43     		orrs	r5, r5, r3
 662              	.LVL76:
 119:Src/I2C.c     ****         }
 663              		.loc 1 119 18 view .LVU145
 664 0036 EDB2     		uxtb	r5, r5
 665              	.LVL77:
 119:Src/I2C.c     ****         }
 666              		.loc 1 119 18 view .LVU146
 667 0038 E7E7     		b	.L40
 668              	.L45:
 119:Src/I2C.c     ****         }
 669              		.loc 1 119 18 view .LVU147
 670              	.LBE4:
 124:Src/I2C.c     ****     {
 671              		.loc 1 124 5 is_stmt 1 view .LVU148
 124:Src/I2C.c     ****     {
 672              		.loc 1 124 7 is_stmt 0 view .LVU149
 673 003a 1EB9     		cbnz	r6, .L42
 126:Src/I2C.c     ****     }
 674              		.loc 1 126 9 is_stmt 1 view .LVU150
 675 003c FFF7FEFF 		bl	I2C_sendACK
 676              	.LVL78:
 677              	.L43:
 132:Src/I2C.c     **** }
 678              		.loc 1 132 5 view .LVU151
 133:Src/I2C.c     **** 
 679              		.loc 1 133 1 is_stmt 0 view .LVU152
 680 0040 2846     		mov	r0, r5
ARM GAS  C:\Users\ADMINI~1\AppData\Local\Temp\cc3XTJ2G.s 			page 17


 681 0042 70BD     		pop	{r4, r5, r6, pc}
 682              	.LVL79:
 683              	.L42:
 130:Src/I2C.c     ****     }
 684              		.loc 1 130 9 is_stmt 1 view .LVU153
 685 0044 FFF7FEFF 		bl	I2C_sendNACK
 686              	.LVL80:
 687 0048 FAE7     		b	.L43
 688              	.L47:
 689 004a 00BF     		.align	2
 690              	.L46:
 691 004c 000C0140 		.word	1073810432
 692              		.cfi_endproc
 693              	.LFE72:
 695              		.text
 696              	.Letext0:
 697              		.file 2 "D:/toolchain/gcc/xpack-arm-none-eabi-gcc-13.2.1-1.1-win32-x64/xpack-arm-none-eabi-gcc-13.
 698              		.file 3 "D:/toolchain/gcc/xpack-arm-none-eabi-gcc-13.2.1-1.1-win32-x64/xpack-arm-none-eabi-gcc-13.
 699              		.file 4 "Drivers/CMSIS/Device/ST/STM32F1xx/Include/stm32f103xe.h"
 700              		.file 5 "Drivers/STM32F1xx_HAL_Driver/Inc/stm32f1xx_hal_gpio.h"
 701              		.file 6 "Inc/delay.h"
ARM GAS  C:\Users\ADMINI~1\AppData\Local\Temp\cc3XTJ2G.s 			page 18

