ARM GAS  C:\Users\ADMINI~1\AppData\Local\Temp\cc175tNb.s 			page 1


   1              		.cpu cortex-m3
   2              		.arch armv7-m
   3              		.fpu softvfp
   4              		.eabi_attribute 20, 1
   5              		.eabi_attribute 21, 1
   6              		.eabi_attribute 23, 3
   7              		.eabi_attribute 24, 1
   8              		.eabi_attribute 25, 1
   9              		.eabi_attribute 26, 1
  10              		.eabi_attribute 30, 1
  11              		.eabi_attribute 34, 1
  12              		.eabi_attribute 18, 4
  13              		.file	"key.c"
  14              		.text
  15              	.Ltext0:
  16              		.cfi_sections	.debug_frame
  17              		.file 1 "Src/key.c"
  18              		.section	.text.Key_Init,"ax",%progbits
  19              		.align	1
  20              		.global	Key_Init
  21              		.syntax unified
  22              		.thumb
  23              		.thumb_func
  25              	Key_Init:
  26              	.LFB65:
   1:Src/key.c     **** #include "main.h"
   2:Src/key.c     **** 
   3:Src/key.c     **** /**
   4:Src/key.c     ****  * @brief       key初始化函数
   5:Src/key.c     ****  * @param       无
   6:Src/key.c     ****  * @retval      无
   7:Src/key.c     ****  */
   8:Src/key.c     **** void Key_Init(void)
   9:Src/key.c     **** {
  27              		.loc 1 9 1 view -0
  28              		.cfi_startproc
  29              		@ args = 0, pretend = 0, frame = 24
  30              		@ frame_needed = 0, uses_anonymous_args = 0
  31 0000 2DE9F041 		push	{r4, r5, r6, r7, r8, lr}
  32              	.LCFI0:
  33              		.cfi_def_cfa_offset 24
  34              		.cfi_offset 4, -24
  35              		.cfi_offset 5, -20
  36              		.cfi_offset 6, -16
  37              		.cfi_offset 7, -12
  38              		.cfi_offset 8, -8
  39              		.cfi_offset 14, -4
  40 0004 86B0     		sub	sp, sp, #24
  41              	.LCFI1:
  42              		.cfi_def_cfa_offset 48
  10:Src/key.c     ****     __HAL_RCC_GPIOE_CLK_ENABLE();//时钟使能
  43              		.loc 1 10 5 view .LVU1
  44              	.LBB2:
  45              		.loc 1 10 5 view .LVU2
  46              		.loc 1 10 5 view .LVU3
  47 0006 224D     		ldr	r5, .L3
  48 0008 AB69     		ldr	r3, [r5, #24]
ARM GAS  C:\Users\ADMINI~1\AppData\Local\Temp\cc175tNb.s 			page 2


  49 000a 43F04003 		orr	r3, r3, #64
  50 000e AB61     		str	r3, [r5, #24]
  51              		.loc 1 10 5 view .LVU4
  52 0010 AB69     		ldr	r3, [r5, #24]
  53 0012 03F04003 		and	r3, r3, #64
  54 0016 0093     		str	r3, [sp]
  55              		.loc 1 10 5 view .LVU5
  56 0018 009B     		ldr	r3, [sp]
  57              	.LBE2:
  58              		.loc 1 10 5 view .LVU6
  11:Src/key.c     **** 
  12:Src/key.c     ****     GPIO_InitTypeDef GPIO_InitStruct;
  59              		.loc 1 12 5 view .LVU7
  13:Src/key.c     ****     GPIO_InitStruct.Pin=GPIO_PIN_2 | GPIO_PIN_3 | GPIO_PIN_4;
  60              		.loc 1 13 5 view .LVU8
  61              		.loc 1 13 24 is_stmt 0 view .LVU9
  62 001a 1C23     		movs	r3, #28
  63 001c 0293     		str	r3, [sp, #8]
  14:Src/key.c     ****     GPIO_InitStruct.Mode=GPIO_MODE_INPUT;//输入模式
  64              		.loc 1 14 5 is_stmt 1 view .LVU10
  65              		.loc 1 14 25 is_stmt 0 view .LVU11
  66 001e 0027     		movs	r7, #0
  67 0020 0397     		str	r7, [sp, #12]
  15:Src/key.c     ****     GPIO_InitStruct.Pull=GPIO_PULLUP;
  68              		.loc 1 15 5 is_stmt 1 view .LVU12
  69              		.loc 1 15 25 is_stmt 0 view .LVU13
  70 0022 0124     		movs	r4, #1
  71 0024 0494     		str	r4, [sp, #16]
  16:Src/key.c     ****     GPIO_InitStruct.Speed=GPIO_SPEED_FREQ_HIGH;//高速
  72              		.loc 1 16 5 is_stmt 1 view .LVU14
  73              		.loc 1 16 26 is_stmt 0 view .LVU15
  74 0026 4FF00308 		mov	r8, #3
  75 002a CDF81480 		str	r8, [sp, #20]
  17:Src/key.c     **** 
  18:Src/key.c     ****     HAL_GPIO_WritePin(GPIOE,GPIO_PIN_2,SET);
  76              		.loc 1 18 5 is_stmt 1 view .LVU16
  77 002e 194E     		ldr	r6, .L3+4
  78 0030 2246     		mov	r2, r4
  79 0032 0421     		movs	r1, #4
  80 0034 3046     		mov	r0, r6
  81 0036 FFF7FEFF 		bl	HAL_GPIO_WritePin
  82              	.LVL0:
  19:Src/key.c     ****     HAL_GPIO_WritePin(GPIOE,GPIO_PIN_3,SET);
  83              		.loc 1 19 5 view .LVU17
  84 003a 2246     		mov	r2, r4
  85 003c 0821     		movs	r1, #8
  86 003e 3046     		mov	r0, r6
  87 0040 FFF7FEFF 		bl	HAL_GPIO_WritePin
  88              	.LVL1:
  20:Src/key.c     ****     HAL_GPIO_WritePin(GPIOE,GPIO_PIN_4,SET);
  89              		.loc 1 20 5 view .LVU18
  90 0044 2246     		mov	r2, r4
  91 0046 1021     		movs	r1, #16
  92 0048 3046     		mov	r0, r6
  93 004a FFF7FEFF 		bl	HAL_GPIO_WritePin
  94              	.LVL2:
  21:Src/key.c     **** 
ARM GAS  C:\Users\ADMINI~1\AppData\Local\Temp\cc175tNb.s 			page 3


  22:Src/key.c     ****     HAL_GPIO_Init(GPIOE,&GPIO_InitStruct);
  95              		.loc 1 22 5 view .LVU19
  96 004e 02A9     		add	r1, sp, #8
  97 0050 3046     		mov	r0, r6
  98 0052 FFF7FEFF 		bl	HAL_GPIO_Init
  99              	.LVL3:
  23:Src/key.c     **** 
  24:Src/key.c     ****     __HAL_RCC_GPIOA_CLK_ENABLE();//时钟使能
 100              		.loc 1 24 5 view .LVU20
 101              	.LBB3:
 102              		.loc 1 24 5 view .LVU21
 103              		.loc 1 24 5 view .LVU22
 104 0056 AB69     		ldr	r3, [r5, #24]
 105 0058 43F00403 		orr	r3, r3, #4
 106 005c AB61     		str	r3, [r5, #24]
 107              		.loc 1 24 5 view .LVU23
 108 005e AB69     		ldr	r3, [r5, #24]
 109 0060 03F00403 		and	r3, r3, #4
 110 0064 0193     		str	r3, [sp, #4]
 111              		.loc 1 24 5 view .LVU24
 112 0066 019B     		ldr	r3, [sp, #4]
 113              	.LBE3:
 114              		.loc 1 24 5 view .LVU25
  25:Src/key.c     **** 
  26:Src/key.c     ****     GPIO_InitStruct.Pin=GPIO_PIN_0;
 115              		.loc 1 26 5 view .LVU26
 116              		.loc 1 26 24 is_stmt 0 view .LVU27
 117 0068 0294     		str	r4, [sp, #8]
  27:Src/key.c     ****     GPIO_InitStruct.Mode=GPIO_MODE_INPUT;//输入模式
 118              		.loc 1 27 5 is_stmt 1 view .LVU28
 119              		.loc 1 27 25 is_stmt 0 view .LVU29
 120 006a 0397     		str	r7, [sp, #12]
  28:Src/key.c     ****     GPIO_InitStruct.Pull=GPIO_PULLDOWN;
 121              		.loc 1 28 5 is_stmt 1 view .LVU30
 122              		.loc 1 28 25 is_stmt 0 view .LVU31
 123 006c 0223     		movs	r3, #2
 124 006e 0493     		str	r3, [sp, #16]
  29:Src/key.c     ****     GPIO_InitStruct.Speed=GPIO_SPEED_FREQ_HIGH;//高速
 125              		.loc 1 29 5 is_stmt 1 view .LVU32
 126              		.loc 1 29 26 is_stmt 0 view .LVU33
 127 0070 CDF81480 		str	r8, [sp, #20]
  30:Src/key.c     **** 
  31:Src/key.c     ****     HAL_GPIO_WritePin(GPIOA,GPIO_PIN_0,RESET);
 128              		.loc 1 31 5 is_stmt 1 view .LVU34
 129 0074 A5F58435 		sub	r5, r5, #67584
 130 0078 3A46     		mov	r2, r7
 131 007a 2146     		mov	r1, r4
 132 007c 2846     		mov	r0, r5
 133 007e FFF7FEFF 		bl	HAL_GPIO_WritePin
 134              	.LVL4:
  32:Src/key.c     ****     HAL_GPIO_Init(GPIOA,&GPIO_InitStruct);
 135              		.loc 1 32 5 view .LVU35
 136 0082 02A9     		add	r1, sp, #8
 137 0084 2846     		mov	r0, r5
 138 0086 FFF7FEFF 		bl	HAL_GPIO_Init
 139              	.LVL5:
  33:Src/key.c     **** }
ARM GAS  C:\Users\ADMINI~1\AppData\Local\Temp\cc175tNb.s 			page 4


 140              		.loc 1 33 1 is_stmt 0 view .LVU36
 141 008a 06B0     		add	sp, sp, #24
 142              	.LCFI2:
 143              		.cfi_def_cfa_offset 24
 144              		@ sp needed
 145 008c BDE8F081 		pop	{r4, r5, r6, r7, r8, pc}
 146              	.L4:
 147              		.align	2
 148              	.L3:
 149 0090 00100240 		.word	1073876992
 150 0094 00180140 		.word	1073813504
 151              		.cfi_endproc
 152              	.LFE65:
 154              		.section	.text.getKeyNum,"ax",%progbits
 155              		.align	1
 156              		.global	getKeyNum
 157              		.syntax unified
 158              		.thumb
 159              		.thumb_func
 161              	getKeyNum:
 162              	.LFB66:
  34:Src/key.c     **** 
  35:Src/key.c     **** /**
  36:Src/key.c     ****  * @brief       获取按键值函数
  37:Src/key.c     ****  * @param       无
  38:Src/key.c     ****  * @retval      按键对应值
  39:Src/key.c     ****  */
  40:Src/key.c     **** uint8_t getKeyNum(void)
  41:Src/key.c     **** {
 163              		.loc 1 41 1 is_stmt 1 view -0
 164              		.cfi_startproc
 165              		@ args = 0, pretend = 0, frame = 0
 166              		@ frame_needed = 0, uses_anonymous_args = 0
 167 0000 10B5     		push	{r4, lr}
 168              	.LCFI3:
 169              		.cfi_def_cfa_offset 8
 170              		.cfi_offset 4, -8
 171              		.cfi_offset 14, -4
  42:Src/key.c     ****     uint8_t keynum = 100;
 172              		.loc 1 42 5 view .LVU38
 173              	.LVL6:
  43:Src/key.c     ****     if(HAL_GPIO_ReadPin(GPIOE,GPIO_PIN_4)==0)
 174              		.loc 1 43 5 view .LVU39
 175              		.loc 1 43 8 is_stmt 0 view .LVU40
 176 0002 1021     		movs	r1, #16
 177 0004 2948     		ldr	r0, .L24
 178 0006 FFF7FEFF 		bl	HAL_GPIO_ReadPin
 179              	.LVL7:
 180              		.loc 1 43 7 discriminator 1 view .LVU41
 181 000a 90B1     		cbz	r0, .L20
  42:Src/key.c     ****     uint8_t keynum = 100;
 182              		.loc 1 42 13 view .LVU42
 183 000c 6424     		movs	r4, #100
 184              	.L6:
 185              	.LVL8:
  44:Src/key.c     ****     {
  45:Src/key.c     ****         HAL_Delay(10);//消抖
ARM GAS  C:\Users\ADMINI~1\AppData\Local\Temp\cc175tNb.s 			page 5


  46:Src/key.c     ****         while(HAL_GPIO_ReadPin(GPIOE,GPIO_PIN_4)==0)//持续按下不松手
  47:Src/key.c     ****         HAL_Delay(10);
  48:Src/key.c     ****         keynum=0;
  49:Src/key.c     ****     }
  50:Src/key.c     ****     if(HAL_GPIO_ReadPin(GPIOE,GPIO_PIN_3)==0)
 186              		.loc 1 50 5 is_stmt 1 view .LVU43
 187              		.loc 1 50 8 is_stmt 0 view .LVU44
 188 000e 0821     		movs	r1, #8
 189 0010 2648     		ldr	r0, .L24
 190 0012 FFF7FEFF 		bl	HAL_GPIO_ReadPin
 191              	.LVL9:
 192              		.loc 1 50 7 discriminator 1 view .LVU45
 193 0016 D8B1     		cbz	r0, .L21
 194              	.LVL10:
 195              	.L9:
  51:Src/key.c     ****     {
  52:Src/key.c     ****         HAL_Delay(10);
  53:Src/key.c     ****         while(HAL_GPIO_ReadPin(GPIOE,GPIO_PIN_3)==0)
  54:Src/key.c     ****         HAL_Delay(10);
  55:Src/key.c     ****         keynum=1;
  56:Src/key.c     ****     }
  57:Src/key.c     ****     if(HAL_GPIO_ReadPin(GPIOE,GPIO_PIN_2)==0)
 196              		.loc 1 57 5 is_stmt 1 view .LVU46
 197              		.loc 1 57 8 is_stmt 0 view .LVU47
 198 0018 0421     		movs	r1, #4
 199 001a 2448     		ldr	r0, .L24
 200 001c FFF7FEFF 		bl	HAL_GPIO_ReadPin
 201              	.LVL11:
 202              		.loc 1 57 7 discriminator 1 view .LVU48
 203 0020 28B3     		cbz	r0, .L22
 204              	.LVL12:
 205              	.L12:
  58:Src/key.c     ****     {
  59:Src/key.c     ****         HAL_Delay(10);
  60:Src/key.c     ****         while(HAL_GPIO_ReadPin(GPIOE,GPIO_PIN_2)==0)
  61:Src/key.c     ****         HAL_Delay(10);
  62:Src/key.c     ****         keynum=2;
  63:Src/key.c     ****     }
  64:Src/key.c     ****     if(HAL_GPIO_ReadPin(GPIOA,GPIO_PIN_0)==1)
 206              		.loc 1 64 5 is_stmt 1 view .LVU49
 207              		.loc 1 64 8 is_stmt 0 view .LVU50
 208 0022 0121     		movs	r1, #1
 209 0024 2248     		ldr	r0, .L24+4
 210 0026 FFF7FEFF 		bl	HAL_GPIO_ReadPin
 211              	.LVL13:
 212              		.loc 1 64 7 discriminator 1 view .LVU51
 213 002a 0128     		cmp	r0, #1
 214 002c 2ED0     		beq	.L23
 215              	.LVL14:
 216              	.L15:
  65:Src/key.c     ****     {
  66:Src/key.c     ****         HAL_Delay(10);//消抖
  67:Src/key.c     ****         while(HAL_GPIO_ReadPin(GPIOA,GPIO_PIN_0)==1)//持续按下不松手
  68:Src/key.c     ****         HAL_Delay(10);
  69:Src/key.c     ****         keynum=3;
  70:Src/key.c     ****     }
  71:Src/key.c     ****     return keynum;
ARM GAS  C:\Users\ADMINI~1\AppData\Local\Temp\cc175tNb.s 			page 6


 217              		.loc 1 71 5 is_stmt 1 view .LVU52
  72:Src/key.c     **** }
 218              		.loc 1 72 1 is_stmt 0 view .LVU53
 219 002e 2046     		mov	r0, r4
 220 0030 10BD     		pop	{r4, pc}
 221              	.LVL15:
 222              	.L20:
 223              		.loc 1 72 1 view .LVU54
 224 0032 0446     		mov	r4, r0
  45:Src/key.c     ****         while(HAL_GPIO_ReadPin(GPIOE,GPIO_PIN_4)==0)//持续按下不松手
 225              		.loc 1 45 9 is_stmt 1 view .LVU55
 226 0034 0A20     		movs	r0, #10
 227 0036 FFF7FEFF 		bl	HAL_Delay
 228              	.LVL16:
  46:Src/key.c     ****         HAL_Delay(10);
 229              		.loc 1 46 9 view .LVU56
  46:Src/key.c     ****         HAL_Delay(10);
 230              		.loc 1 46 14 is_stmt 0 view .LVU57
 231 003a 02E0     		b	.L7
 232              	.L8:
  47:Src/key.c     ****         keynum=0;
 233              		.loc 1 47 9 is_stmt 1 view .LVU58
 234 003c 0A20     		movs	r0, #10
 235 003e FFF7FEFF 		bl	HAL_Delay
 236              	.LVL17:
 237              	.L7:
  46:Src/key.c     ****         HAL_Delay(10);
 238              		.loc 1 46 49 view .LVU59
  46:Src/key.c     ****         HAL_Delay(10);
 239              		.loc 1 46 15 is_stmt 0 view .LVU60
 240 0042 1021     		movs	r1, #16
 241 0044 1948     		ldr	r0, .L24
 242 0046 FFF7FEFF 		bl	HAL_GPIO_ReadPin
 243              	.LVL18:
  46:Src/key.c     ****         HAL_Delay(10);
 244              		.loc 1 46 49 discriminator 1 view .LVU61
 245 004a 0028     		cmp	r0, #0
 246 004c F6D0     		beq	.L8
 247 004e DEE7     		b	.L6
 248              	.LVL19:
 249              	.L21:
  52:Src/key.c     ****         while(HAL_GPIO_ReadPin(GPIOE,GPIO_PIN_3)==0)
 250              		.loc 1 52 9 is_stmt 1 view .LVU62
 251 0050 0A20     		movs	r0, #10
 252 0052 FFF7FEFF 		bl	HAL_Delay
 253              	.LVL20:
  53:Src/key.c     ****         HAL_Delay(10);
 254              		.loc 1 53 9 view .LVU63
  53:Src/key.c     ****         HAL_Delay(10);
 255              		.loc 1 53 14 is_stmt 0 view .LVU64
 256 0056 02E0     		b	.L10
 257              	.L11:
  54:Src/key.c     ****         keynum=1;
 258              		.loc 1 54 9 is_stmt 1 view .LVU65
 259 0058 0A20     		movs	r0, #10
 260 005a FFF7FEFF 		bl	HAL_Delay
 261              	.LVL21:
ARM GAS  C:\Users\ADMINI~1\AppData\Local\Temp\cc175tNb.s 			page 7


 262              	.L10:
  53:Src/key.c     ****         HAL_Delay(10);
 263              		.loc 1 53 49 view .LVU66
  53:Src/key.c     ****         HAL_Delay(10);
 264              		.loc 1 53 15 is_stmt 0 view .LVU67
 265 005e 0821     		movs	r1, #8
 266 0060 1248     		ldr	r0, .L24
 267 0062 FFF7FEFF 		bl	HAL_GPIO_ReadPin
 268              	.LVL22:
  53:Src/key.c     ****         HAL_Delay(10);
 269              		.loc 1 53 49 discriminator 1 view .LVU68
 270 0066 0028     		cmp	r0, #0
 271 0068 F6D0     		beq	.L11
  55:Src/key.c     ****     }
 272              		.loc 1 55 15 view .LVU69
 273 006a 0124     		movs	r4, #1
 274              	.LVL23:
  55:Src/key.c     ****     }
 275              		.loc 1 55 15 view .LVU70
 276 006c D4E7     		b	.L9
 277              	.LVL24:
 278              	.L22:
  59:Src/key.c     ****         while(HAL_GPIO_ReadPin(GPIOE,GPIO_PIN_2)==0)
 279              		.loc 1 59 9 is_stmt 1 view .LVU71
 280 006e 0A20     		movs	r0, #10
 281 0070 FFF7FEFF 		bl	HAL_Delay
 282              	.LVL25:
  60:Src/key.c     ****         HAL_Delay(10);
 283              		.loc 1 60 9 view .LVU72
  60:Src/key.c     ****         HAL_Delay(10);
 284              		.loc 1 60 14 is_stmt 0 view .LVU73
 285 0074 02E0     		b	.L13
 286              	.L14:
  61:Src/key.c     ****         keynum=2;
 287              		.loc 1 61 9 is_stmt 1 view .LVU74
 288 0076 0A20     		movs	r0, #10
 289 0078 FFF7FEFF 		bl	HAL_Delay
 290              	.LVL26:
 291              	.L13:
  60:Src/key.c     ****         HAL_Delay(10);
 292              		.loc 1 60 49 view .LVU75
  60:Src/key.c     ****         HAL_Delay(10);
 293              		.loc 1 60 15 is_stmt 0 view .LVU76
 294 007c 0421     		movs	r1, #4
 295 007e 0B48     		ldr	r0, .L24
 296 0080 FFF7FEFF 		bl	HAL_GPIO_ReadPin
 297              	.LVL27:
  60:Src/key.c     ****         HAL_Delay(10);
 298              		.loc 1 60 49 discriminator 1 view .LVU77
 299 0084 0028     		cmp	r0, #0
 300 0086 F6D0     		beq	.L14
  62:Src/key.c     ****     }
 301              		.loc 1 62 15 view .LVU78
 302 0088 0224     		movs	r4, #2
 303              	.LVL28:
  62:Src/key.c     ****     }
 304              		.loc 1 62 15 view .LVU79
ARM GAS  C:\Users\ADMINI~1\AppData\Local\Temp\cc175tNb.s 			page 8


 305 008a CAE7     		b	.L12
 306              	.LVL29:
 307              	.L23:
  66:Src/key.c     ****         while(HAL_GPIO_ReadPin(GPIOA,GPIO_PIN_0)==1)//持续按下不松手
 308              		.loc 1 66 9 is_stmt 1 view .LVU80
 309 008c 0A20     		movs	r0, #10
 310 008e FFF7FEFF 		bl	HAL_Delay
 311              	.LVL30:
  67:Src/key.c     ****         HAL_Delay(10);
 312              		.loc 1 67 9 view .LVU81
  67:Src/key.c     ****         HAL_Delay(10);
 313              		.loc 1 67 14 is_stmt 0 view .LVU82
 314 0092 02E0     		b	.L16
 315              	.L17:
  68:Src/key.c     ****         keynum=3;
 316              		.loc 1 68 9 is_stmt 1 view .LVU83
 317 0094 0A20     		movs	r0, #10
 318 0096 FFF7FEFF 		bl	HAL_Delay
 319              	.LVL31:
 320              	.L16:
  67:Src/key.c     ****         HAL_Delay(10);
 321              		.loc 1 67 49 view .LVU84
  67:Src/key.c     ****         HAL_Delay(10);
 322              		.loc 1 67 15 is_stmt 0 view .LVU85
 323 009a 0121     		movs	r1, #1
 324 009c 0448     		ldr	r0, .L24+4
 325 009e FFF7FEFF 		bl	HAL_GPIO_ReadPin
 326              	.LVL32:
  67:Src/key.c     ****         HAL_Delay(10);
 327              		.loc 1 67 49 discriminator 1 view .LVU86
 328 00a2 0128     		cmp	r0, #1
 329 00a4 F6D0     		beq	.L17
  69:Src/key.c     ****     }
 330              		.loc 1 69 15 view .LVU87
 331 00a6 0324     		movs	r4, #3
 332              	.LVL33:
  69:Src/key.c     ****     }
 333              		.loc 1 69 15 view .LVU88
 334 00a8 C1E7     		b	.L15
 335              	.L25:
 336 00aa 00BF     		.align	2
 337              	.L24:
 338 00ac 00180140 		.word	1073813504
 339 00b0 00080140 		.word	1073809408
 340              		.cfi_endproc
 341              	.LFE66:
 343              		.text
 344              	.Letext0:
 345              		.file 2 "D:/toolchain/gcc/xpack-arm-none-eabi-gcc-13.2.1-1.1-win32-x64/xpack-arm-none-eabi-gcc-13.
 346              		.file 3 "D:/toolchain/gcc/xpack-arm-none-eabi-gcc-13.2.1-1.1-win32-x64/xpack-arm-none-eabi-gcc-13.
 347              		.file 4 "Drivers/CMSIS/Device/ST/STM32F1xx/Include/stm32f103xe.h"
 348              		.file 5 "Drivers/STM32F1xx_HAL_Driver/Inc/stm32f1xx_hal_gpio.h"
 349              		.file 6 "Drivers/CMSIS/Device/ST/STM32F1xx/Include/stm32f1xx.h"
 350              		.file 7 "Drivers/STM32F1xx_HAL_Driver/Inc/stm32f1xx_hal.h"
ARM GAS  C:\Users\ADMINI~1\AppData\Local\Temp\cc175tNb.s 			page 9

