ARM GAS  C:\Users\ADMINI~1\AppData\Local\Temp\ccG9psb0.s 			page 1


   1              		.cpu cortex-m3
   2              		.arch armv7-m
   3              		.fpu softvfp
   4              		.eabi_attribute 20, 1
   5              		.eabi_attribute 21, 1
   6              		.eabi_attribute 23, 3
   7              		.eabi_attribute 24, 1
   8              		.eabi_attribute 25, 1
   9              		.eabi_attribute 26, 1
  10              		.eabi_attribute 30, 1
  11              		.eabi_attribute 34, 1
  12              		.eabi_attribute 18, 4
  13              		.file	"led.c"
  14              		.text
  15              	.Ltext0:
  16              		.cfi_sections	.debug_frame
  17              		.file 1 "Src/led.c"
  18              		.section	.text.LED_Init,"ax",%progbits
  19              		.align	1
  20              		.global	LED_Init
  21              		.syntax unified
  22              		.thumb
  23              		.thumb_func
  25              	LED_Init:
  26              	.LFB65:
   1:Src/led.c     **** #include "main.h"
   2:Src/led.c     **** 
   3:Src/led.c     **** #define LED0_Port GPIOB
   4:Src/led.c     **** #define LED1_Port GPIOE
   5:Src/led.c     **** 
   6:Src/led.c     **** /**
   7:Src/led.c     ****  * @brief       LED初始化函数
   8:Src/led.c     ****  * @param       无
   9:Src/led.c     ****  * @retval      无
  10:Src/led.c     ****  */
  11:Src/led.c     **** void LED_Init(void)
  12:Src/led.c     **** {
  27              		.loc 1 12 1 view -0
  28              		.cfi_startproc
  29              		@ args = 0, pretend = 0, frame = 24
  30              		@ frame_needed = 0, uses_anonymous_args = 0
  31 0000 F0B5     		push	{r4, r5, r6, r7, lr}
  32              	.LCFI0:
  33              		.cfi_def_cfa_offset 20
  34              		.cfi_offset 4, -20
  35              		.cfi_offset 5, -16
  36              		.cfi_offset 6, -12
  37              		.cfi_offset 7, -8
  38              		.cfi_offset 14, -4
  39 0002 87B0     		sub	sp, sp, #28
  40              	.LCFI1:
  41              		.cfi_def_cfa_offset 48
  13:Src/led.c     ****     __HAL_RCC_GPIOB_CLK_ENABLE();//时钟使能
  42              		.loc 1 13 5 view .LVU1
  43              	.LBB2:
  44              		.loc 1 13 5 view .LVU2
  45              		.loc 1 13 5 view .LVU3
ARM GAS  C:\Users\ADMINI~1\AppData\Local\Temp\ccG9psb0.s 			page 2


  46 0004 184B     		ldr	r3, .L3
  47 0006 9A69     		ldr	r2, [r3, #24]
  48 0008 42F00802 		orr	r2, r2, #8
  49 000c 9A61     		str	r2, [r3, #24]
  50              		.loc 1 13 5 view .LVU4
  51 000e 9A69     		ldr	r2, [r3, #24]
  52 0010 02F00802 		and	r2, r2, #8
  53 0014 0092     		str	r2, [sp]
  54              		.loc 1 13 5 view .LVU5
  55 0016 009A     		ldr	r2, [sp]
  56              	.LBE2:
  57              		.loc 1 13 5 view .LVU6
  14:Src/led.c     ****     __HAL_RCC_GPIOE_CLK_ENABLE();
  58              		.loc 1 14 5 view .LVU7
  59              	.LBB3:
  60              		.loc 1 14 5 view .LVU8
  61              		.loc 1 14 5 view .LVU9
  62 0018 9A69     		ldr	r2, [r3, #24]
  63 001a 42F04002 		orr	r2, r2, #64
  64 001e 9A61     		str	r2, [r3, #24]
  65              		.loc 1 14 5 view .LVU10
  66 0020 9B69     		ldr	r3, [r3, #24]
  67 0022 03F04003 		and	r3, r3, #64
  68 0026 0193     		str	r3, [sp, #4]
  69              		.loc 1 14 5 view .LVU11
  70 0028 019B     		ldr	r3, [sp, #4]
  71              	.LBE3:
  72              		.loc 1 14 5 view .LVU12
  15:Src/led.c     **** 
  16:Src/led.c     ****     GPIO_InitTypeDef GPIO_InitStruct;
  73              		.loc 1 16 5 view .LVU13
  17:Src/led.c     **** 
  18:Src/led.c     ****     GPIO_InitStruct.Pin=GPIO_PIN_5;
  74              		.loc 1 18 5 view .LVU14
  75              		.loc 1 18 24 is_stmt 0 view .LVU15
  76 002a 2024     		movs	r4, #32
  77 002c 0294     		str	r4, [sp, #8]
  19:Src/led.c     ****     GPIO_InitStruct.Mode=GPIO_MODE_OUTPUT_PP;//推挽输出模式
  78              		.loc 1 19 5 is_stmt 1 view .LVU16
  79              		.loc 1 19 25 is_stmt 0 view .LVU17
  80 002e 0125     		movs	r5, #1
  81 0030 0395     		str	r5, [sp, #12]
  20:Src/led.c     ****     GPIO_InitStruct.Pull=GPIO_NOPULL;//不上拉也不下拉
  82              		.loc 1 20 5 is_stmt 1 view .LVU18
  83              		.loc 1 20 25 is_stmt 0 view .LVU19
  84 0032 0023     		movs	r3, #0
  85 0034 0493     		str	r3, [sp, #16]
  21:Src/led.c     ****     GPIO_InitStruct.Speed=GPIO_SPEED_FREQ_LOW;//低速
  86              		.loc 1 21 5 is_stmt 1 view .LVU20
  87              		.loc 1 21 26 is_stmt 0 view .LVU21
  88 0036 0223     		movs	r3, #2
  89 0038 0593     		str	r3, [sp, #20]
  22:Src/led.c     **** 
  23:Src/led.c     ****     HAL_GPIO_WritePin(GPIOB,GPIO_PIN_5,SET);
  90              		.loc 1 23 5 is_stmt 1 view .LVU22
  91 003a 0C4F     		ldr	r7, .L3+4
  92 003c 2A46     		mov	r2, r5
ARM GAS  C:\Users\ADMINI~1\AppData\Local\Temp\ccG9psb0.s 			page 3


  93 003e 2146     		mov	r1, r4
  94 0040 3846     		mov	r0, r7
  95 0042 FFF7FEFF 		bl	HAL_GPIO_WritePin
  96              	.LVL0:
  24:Src/led.c     ****     HAL_GPIO_WritePin(GPIOE,GPIO_PIN_5,SET);
  97              		.loc 1 24 5 view .LVU23
  98 0046 0A4E     		ldr	r6, .L3+8
  99 0048 2A46     		mov	r2, r5
 100 004a 2146     		mov	r1, r4
 101 004c 3046     		mov	r0, r6
 102 004e FFF7FEFF 		bl	HAL_GPIO_WritePin
 103              	.LVL1:
  25:Src/led.c     **** 
  26:Src/led.c     ****     HAL_GPIO_Init(GPIOB,&GPIO_InitStruct);//LED0
 104              		.loc 1 26 5 view .LVU24
 105 0052 02A9     		add	r1, sp, #8
 106 0054 3846     		mov	r0, r7
 107 0056 FFF7FEFF 		bl	HAL_GPIO_Init
 108              	.LVL2:
  27:Src/led.c     ****     HAL_GPIO_Init(GPIOE,&GPIO_InitStruct);//LED1
 109              		.loc 1 27 5 view .LVU25
 110 005a 02A9     		add	r1, sp, #8
 111 005c 3046     		mov	r0, r6
 112 005e FFF7FEFF 		bl	HAL_GPIO_Init
 113              	.LVL3:
  28:Src/led.c     **** }
 114              		.loc 1 28 1 is_stmt 0 view .LVU26
 115 0062 07B0     		add	sp, sp, #28
 116              	.LCFI2:
 117              		.cfi_def_cfa_offset 20
 118              		@ sp needed
 119 0064 F0BD     		pop	{r4, r5, r6, r7, pc}
 120              	.L4:
 121 0066 00BF     		.align	2
 122              	.L3:
 123 0068 00100240 		.word	1073876992
 124 006c 000C0140 		.word	1073810432
 125 0070 00180140 		.word	1073813504
 126              		.cfi_endproc
 127              	.LFE65:
 129              		.section	.text.LED_Toggle,"ax",%progbits
 130              		.align	1
 131              		.global	LED_Toggle
 132              		.syntax unified
 133              		.thumb
 134              		.thumb_func
 136              	LED_Toggle:
 137              	.LVL4:
 138              	.LFB66:
  29:Src/led.c     **** 
  30:Src/led.c     **** /**
  31:Src/led.c     ****  * @brief       LED状态翻转函数
  32:Src/led.c     ****  * @param       无
  33:Src/led.c     ****  * @retval      无
  34:Src/led.c     ****  */
  35:Src/led.c     **** void LED_Toggle(GPIO_TypeDef *GPIOx, uint16_t GPIO_Pin)
  36:Src/led.c     **** {
ARM GAS  C:\Users\ADMINI~1\AppData\Local\Temp\ccG9psb0.s 			page 4


 139              		.loc 1 36 1 is_stmt 1 view -0
 140              		.cfi_startproc
 141              		@ args = 0, pretend = 0, frame = 0
 142              		@ frame_needed = 0, uses_anonymous_args = 0
 143              		.loc 1 36 1 is_stmt 0 view .LVU28
 144 0000 08B5     		push	{r3, lr}
 145              	.LCFI3:
 146              		.cfi_def_cfa_offset 8
 147              		.cfi_offset 3, -8
 148              		.cfi_offset 14, -4
  37:Src/led.c     ****     HAL_GPIO_TogglePin(GPIOx,GPIO_Pin);
 149              		.loc 1 37 5 is_stmt 1 view .LVU29
 150 0002 FFF7FEFF 		bl	HAL_GPIO_TogglePin
 151              	.LVL5:
  38:Src/led.c     **** }
 152              		.loc 1 38 1 is_stmt 0 view .LVU30
 153 0006 08BD     		pop	{r3, pc}
 154              		.cfi_endproc
 155              	.LFE66:
 157              		.section	.text.LED_Light,"ax",%progbits
 158              		.align	1
 159              		.global	LED_Light
 160              		.syntax unified
 161              		.thumb
 162              		.thumb_func
 164              	LED_Light:
 165              	.LVL6:
 166              	.LFB67:
  39:Src/led.c     **** 
  40:Src/led.c     **** /**
  41:Src/led.c     ****  * @brief       LED点亮函数
  42:Src/led.c     ****  * @param       GPIOx:哪个端口；GPIO_Pin:具体引脚
  43:Src/led.c     ****  * @retval      无
  44:Src/led.c     ****  */
  45:Src/led.c     **** void LED_Light(GPIO_TypeDef *GPIOx, uint16_t GPIO_Pin)
  46:Src/led.c     **** {
 167              		.loc 1 46 1 is_stmt 1 view -0
 168              		.cfi_startproc
 169              		@ args = 0, pretend = 0, frame = 0
 170              		@ frame_needed = 0, uses_anonymous_args = 0
 171              		.loc 1 46 1 is_stmt 0 view .LVU32
 172 0000 08B5     		push	{r3, lr}
 173              	.LCFI4:
 174              		.cfi_def_cfa_offset 8
 175              		.cfi_offset 3, -8
 176              		.cfi_offset 14, -4
  47:Src/led.c     ****     HAL_GPIO_WritePin(GPIOx,GPIO_Pin,RESET);
 177              		.loc 1 47 5 is_stmt 1 view .LVU33
 178 0002 0022     		movs	r2, #0
 179 0004 FFF7FEFF 		bl	HAL_GPIO_WritePin
 180              	.LVL7:
  48:Src/led.c     **** }
 181              		.loc 1 48 1 is_stmt 0 view .LVU34
 182 0008 08BD     		pop	{r3, pc}
 183              		.cfi_endproc
 184              	.LFE67:
 186              		.section	.text.LED_Die,"ax",%progbits
ARM GAS  C:\Users\ADMINI~1\AppData\Local\Temp\ccG9psb0.s 			page 5


 187              		.align	1
 188              		.global	LED_Die
 189              		.syntax unified
 190              		.thumb
 191              		.thumb_func
 193              	LED_Die:
 194              	.LVL8:
 195              	.LFB68:
  49:Src/led.c     **** 
  50:Src/led.c     **** /**
  51:Src/led.c     ****  * @brief       LED熄灭函数
  52:Src/led.c     ****  * @param       GPIOx:哪个端口；GPIO_Pin:具体引脚
  53:Src/led.c     ****  * @retval      无
  54:Src/led.c     ****  */
  55:Src/led.c     **** void LED_Die(GPIO_TypeDef *GPIOx, uint16_t GPIO_Pin)
  56:Src/led.c     **** {
 196              		.loc 1 56 1 is_stmt 1 view -0
 197              		.cfi_startproc
 198              		@ args = 0, pretend = 0, frame = 0
 199              		@ frame_needed = 0, uses_anonymous_args = 0
 200              		.loc 1 56 1 is_stmt 0 view .LVU36
 201 0000 08B5     		push	{r3, lr}
 202              	.LCFI5:
 203              		.cfi_def_cfa_offset 8
 204              		.cfi_offset 3, -8
 205              		.cfi_offset 14, -4
  57:Src/led.c     ****     HAL_GPIO_WritePin(GPIOx,GPIO_Pin,SET);
 206              		.loc 1 57 5 is_stmt 1 view .LVU37
 207 0002 0122     		movs	r2, #1
 208 0004 FFF7FEFF 		bl	HAL_GPIO_WritePin
 209              	.LVL9:
  58:Src/led.c     **** }
 210              		.loc 1 58 1 is_stmt 0 view .LVU38
 211 0008 08BD     		pop	{r3, pc}
 212              		.cfi_endproc
 213              	.LFE68:
 215              		.text
 216              	.Letext0:
 217              		.file 2 "D:/toolchain/gcc/xpack-arm-none-eabi-gcc-13.2.1-1.1-win32-x64/xpack-arm-none-eabi-gcc-13.
 218              		.file 3 "D:/toolchain/gcc/xpack-arm-none-eabi-gcc-13.2.1-1.1-win32-x64/xpack-arm-none-eabi-gcc-13.
 219              		.file 4 "Drivers/CMSIS/Device/ST/STM32F1xx/Include/stm32f103xe.h"
 220              		.file 5 "Drivers/STM32F1xx_HAL_Driver/Inc/stm32f1xx_hal_gpio.h"
 221              		.file 6 "Drivers/CMSIS/Device/ST/STM32F1xx/Include/stm32f1xx.h"
ARM GAS  C:\Users\ADMINI~1\AppData\Local\Temp\ccG9psb0.s 			page 6

